Certificate:
    Data:
        Version: 3 (0x2)
        Serial Number: 7 (0x7)
        Signature Algorithm: md5WithRSAEncryption
        Issuer: C=US, ST=California, L=Fremont, O=otcwireless, inc., OU=engineering, CN=madwifi.otcwireless.com/emailAddress=jdong@otcwireless.com
        Validity
            Not Before: Sep  9 17:01:28 2005 GMT
            Not After : Sep  9 17:01:28 2006 GMT
        Subject: C=US, ST=California, L=Fremont, O=otcwireless, inc., OU=engineering, CN=nelson
        Subject Public Key Info:
            Public Key Algorithm: rsaEncryption
            RSA Public Key: (1024 bit)
                Modulus (1024 bit):
                    00:e2:48:fd:cb:3b:ff:9e:5d:8a:93:6c:d3:0e:c8:
                    f3:f1:4a:71:d0:57:90:3e:13:5d:41:5b:2b:2e:a9:
                    cd:d8:12:19:1a:73:a2:1e:e3:3c:27:13:09:ae:e9:
                    cf:43:da:17:c9:d9:d4:cd:a4:e0:b6:ab:a1:da:be:
                    5d:d8:00:13:4b:36:b9:dd:62:cb:db:e1:fc:33:e0:
                    e1:53:1c:a6:c5:53:f7:a9:d6:c1:11:70:c2:35:5e:
                    98:28:6d:71:70:9d:e0:99:b4:8e:80:27:65:15:99:
                    31:a0:b0:11:fe:d7:fb:24:1e:a4:45:2a:3a:3e:39:
                    8c:42:35:4e:43:2f:6c:e9:cf
                Exponent: 65537 (0x10001)
        X509v3 extensions:
            X509v3 Extended Key Usage: 
            TLS Web Client Authentication
    Signature Algorithm: md5WithRSAEncryption
        06:b2:74:ca:09:6a:22:cb:34:b9:aa:31:30:c2:d0:09:ff:8a:
        1e:84:ca:84:34:ba:1b:9e:d6:61:59:33:41:cd:b1:f3:17:f7:
        20:bf:f2:79:6c:d3:4b:56:b3:41:d0:56:5a:88:d2:fa:00:88:
        43:84:05:2f:60:0a:1a:45:e1:89:91:8b:33:b1:19:fd:5d:e9:
        9f:03:69:96:21:0c:87:d2:1a:69:e1:c6:67:78:4e:7c:3b:86:
        db:ba:dd:cd:62:d4:d7:d8:e9:8e:25:87:24:73:b8:26:bb:d0:
        6a:d4:fa:f9:ca:55:e8:a6:01:52:2f:97:4e:79:00:18:da:e6:
        83:a4
-----BEGIN CERTIFICATE-----
MIICszCCAhygAwIBAgIBBzANBgkqhkiG9w0BAQQFADCBrjELMAkGA1UEBhMCVVMx
EzARBgNVBAgTCkNhbGlmb3JuaWExEDAOBgNVBAcTB0ZyZW1vbnQxGjAYBgNVBAoT
EW90Y3dpcmVsZXNzLCBpbmMuMRQwEgYDVQQLEwtlbmdpbmVlcmluZzEgMB4GA1UE
AxMXbWFkd2lmaS5vdGN3aXJlbGVzcy5jb20xJDAiBgkqhkiG9w0BCQEWFWpkb25n
QG90Y3dpcmVsZXNzLmNvbTAeFw0wNTA5MDkxNzAxMjhaFw0wNjA5MDkxNzAxMjha
MHcxCzAJBgNVBAYTAlVTMRMwEQYDVQQIEwpDYWxpZm9ybmlhMRAwDgYDVQQHEwdG
cmVtb250MRowGAYDVQQKExFvdGN3aXJlbGVzcywgaW5jLjEUMBIGA1UECxMLZW5n
aW5lZXJpbmcxDzANBgNVBAMTBm5lbHNvbjCBnzANBgkqhkiG9w0BAQEFAAOBjQAw
gYkCgYEA4kj9yzv/nl2Kk2zTDsjz8Upx0FeQPhNdQVsrLqnN2BIZGnOiHuM8JxMJ
runPQ9oXydnUzaTgtquh2r5d2AATSza53WLL2+H8M+DhUxymxVP3qdbBEXDCNV6Y
KG1xcJ3gmbSOgCdlFZkxoLAR/tf7JB6kRSo6PjmMQjVOQy9s6c8CAwEAAaMXMBUw
EwYDVR0lBAwwCgYIKwYBBQUHAwIwDQYJKoZIhvcNAQEEBQADgYEABrJ0yglqIss0
uaoxMMLQCf+KHoTKhDS6G57WYVkzQc2x8xf3IL/yeWzTS1azQdBWWojS+gCIQ4QF
L2AKGkXhiZGLM7EZ/V3pnwNpliEMh9IaaeHGZ3hOfDuG27rdzWLU19jpjiWHJHO4
JrvQatT6+cpV6KYBUi+XTnkAGNrmg6Q=
-----END CERTIFICATE-----
